target datalayout = "e-m:e-p270:32:32-p271:32:32-p272:64:64-i64:64-i128:128-f80:128-n8:16:32:64-S128"
target triple = "x86_64-pc-linux-gnu"

%struct.RelFileLocatorBackend = type { %struct.RelFileLocator, i32 }
%struct.RelFileLocator = type { i32, i32, i32 }

; Function Attrs: nounwind uwtable
define dso_local void @mdunlink(i64 %0, i64 %1, i32 noundef %2, i1 noundef zeroext %3) #0 {
  %5 = alloca %struct.RelFileLocatorBackend, align 4
  %6 = alloca i32, align 4
  %7 = alloca i8, align 1
  %8 = getelementptr inbounds nuw { i64, i64 }, ptr %5, i32 0, i32 0
  store i64 %0, ptr %8, align 4
  %9 = getelementptr inbounds nuw { i64, i64 }, ptr %5, i32 0, i32 1
  store i64 %1, ptr %9, align 4
  store i32 %2, ptr %6, align 4
  %10 = zext i1 %3 to i8
  store i8 %10, ptr %7, align 1
  %11 = load i32, ptr %6, align 4
  %12 = icmp eq i32 %11, -1
  br i1 %12, label %13, label %29

13:                                               ; preds = %4
  store i32 0, ptr %6, align 4
  br label %14

14:                                               ; preds = %25, %13
  %15 = load i32, ptr %6, align 4
  %16 = icmp sle i32 %15, 3
  br i1 %16, label %17, label %28

17:                                               ; preds = %14
  %18 = load i32, ptr %6, align 4
  %19 = load i8, ptr %7, align 1, !range !4, !noundef !5
  %20 = trunc i8 %19 to i1
  %21 = getelementptr inbounds nuw { i64, i64 }, ptr %5, i32 0, i32 0
  %22 = load i64, ptr %21, align 4
  %23 = getelementptr inbounds nuw { i64, i64 }, ptr %5, i32 0, i32 1
  %24 = load i64, ptr %23, align 4
  call void @mdunlinkfork(i64 %22, i64 %24, i32 noundef %18, i1 noundef zeroext %20)
  br label %25

25:                                               ; preds = %17
  %26 = load i32, ptr %6, align 4
  %27 = add i32 %26, 1
  store i32 %27, ptr %6, align 4
  br label %14, !llvm.loop !8

28:                                               ; preds = %14
  br label %37

29:                                               ; preds = %4
  %30 = load i32, ptr %6, align 4
  %31 = load i8, ptr %7, align 1, !range !4, !noundef !5
  %32 = trunc i8 %31 to i1
  %33 = getelementptr inbounds nuw { i64, i64 }, ptr %5, i32 0, i32 0
  %34 = load i64, ptr %33, align 4
  %35 = getelementptr inbounds nuw { i64, i64 }, ptr %5, i32 0, i32 1
  %36 = load i64, ptr %35, align 4
  call void @mdunlinkfork(i64 %34, i64 %36, i32 noundef %30, i1 noundef zeroext %32)
  br label %37

37:                                               ; preds = %29, %28
  ret void
}