; Function Attrs: nounwind uwtable
define dso_local void @mdunlink(i64 %0, i64 %1, i32 noundef %2, i1 noundef zeroext %3) local_unnamed_addr #0 {
  %5 = icmp eq i32 %2, -1
  br i1 %5, label %.preheader, label %7

.preheader:                                       ; preds = %4, %.preheader
  %.010 = phi i32 [ %6, %.preheader ], [ 0, %4 ]
  tail call fastcc void @mdunlinkfork(i64 %0, i64 %1, i32 noundef %.010, i1 noundef zeroext %3)
  %6 = add nuw nsw i32 %.010, 1
  %exitcond.not = icmp eq i32 %6, 4
  br i1 %exitcond.not, label %.loopexit, label %.preheader, !llvm.loop !8

7:                                                ; preds = %4
  tail call fastcc void @mdunlinkfork(i64 %0, i64 %1, i32 noundef %2, i1 noundef zeroext %3)
  br label %.loopexit

.loopexit:                                        ; preds = %.preheader, %7
  ret void
}